; Function Attrs: null_pointer_is_valid sspstrong uwtable
define internal noundef zeroext i1 @dissect_smc_tcp_heur(ptr noundef %0, ptr noundef %1, ptr noundef %2, ptr noundef %3) #0 {
  %5 = tail call i32 @tvb_captured_length(ptr noundef %0)
  %6 = icmp ult i32 %5, 4
  br i1 %6, label %13, label %7

7:                                                ; preds = %4
  %8 = tail call i32 @tvb_get_ntohl(ptr noundef %0, i32 noundef 0)
  %.not = icmp eq i32 %8, -489372711
  br i1 %.not, label %11, label %9

9:                                                ; preds = %7
  %10 = tail call i32 @tvb_get_ntohl(ptr noundef %0, i32 noundef 0)
  %.not8 = icmp eq i32 %10, -489372732
  br i1 %.not8, label %11, label %13

11:                                               ; preds = %9, %7
  tail call void @tcp_dissect_pdus(ptr noundef %0, ptr noundef %1, ptr noundef %2, i1 noundef zeroext true, i32 noundef 7, ptr noundef nonnull @get_smcr_pdu_length, ptr noundef nonnull @dissect_smc_tcp_pdu, ptr noundef %3)
  %12 = tail call i32 @tvb_reported_length(ptr noundef %0)
  br label %13

13:                                               ; preds = %9, %4, %11
  %.0 = phi i1 [ true, %11 ], [ false, %4 ], [ false, %9 ]
  ret i1 %.0
}